target datalayout = "e-m:e-p270:32:32-p271:32:32-p272:64:64-i64:64-i128:128-f80:128-n8:16:32:64-S128"
target triple = "x86_64-pc-linux-gnu"

%struct.xorkey_st = type { [32 x i8], [32 x i8], i32, i32, ptr, %struct.CRYPTO_REF_COUNT }
%struct.CRYPTO_REF_COUNT = type { i32 }

@private_constant = internal constant [32 x i8] c"\D3kT\EC[\AC\89\96\8C,f\A5g\0D\E3\DDCi\BC\83=`\C7\B8+\1CZ\FD\B5\CD\D0\F8", align 16

; Function Attrs: nounwind uwtable
define internal i32 @xor_recreate(ptr noundef %0, ptr noundef %1) #0 {
  %3 = alloca i32, align 4
  %4 = alloca ptr, align 8
  %5 = alloca ptr, align 8
  %6 = alloca i32, align 4
  %7 = alloca i32, align 4
  store ptr %0, ptr %4, align 8, !tbaa !30
  store ptr %1, ptr %5, align 8, !tbaa !30
  call void @llvm.lifetime.start.p0(i64 4, ptr %6) #8
  store i32 0, ptr %6, align 4, !tbaa !27
  br label %8

8:                                                ; preds = %35, %2
  %9 = load i32, ptr %6, align 4, !tbaa !27
  %10 = icmp slt i32 %9, 32
  br i1 %10, label %11, label %38

11:                                               ; preds = %8
  %12 = load ptr, ptr %4, align 8, !tbaa !30
  %13 = load i32, ptr %6, align 4, !tbaa !27
  %14 = sext i32 %13 to i64
  %15 = getelementptr inbounds i8, ptr %12, i64 %14
  %16 = load i8, ptr %15, align 1, !tbaa !51
  %17 = zext i8 %16 to i32
  %18 = and i32 %17, 255
  %19 = load ptr, ptr %5, align 8, !tbaa !30
  %20 = load i32, ptr %6, align 4, !tbaa !27
  %21 = sext i32 %20 to i64
  %22 = getelementptr inbounds i8, ptr %19, i64 %21
  %23 = load i8, ptr %22, align 1, !tbaa !51
  %24 = zext i8 %23 to i32
  %25 = load i32, ptr %6, align 4, !tbaa !27
  %26 = sext i32 %25 to i64
  %27 = getelementptr inbounds [32 x i8], ptr @private_constant, i64 0, i64 %26
  %28 = load i8, ptr %27, align 1, !tbaa !51
  %29 = zext i8 %28 to i32
  %30 = xor i32 %24, %29
  %31 = and i32 %30, 255
  %32 = icmp ne i32 %18, %31
  br i1 %32, label %33, label %34

33:                                               ; preds = %11
  store i32 0, ptr %3, align 4
  store i32 1, ptr %7, align 4
  br label %39

34:                                               ; preds = %11
  br label %35

35:                                               ; preds = %34
  %36 = load i32, ptr %6, align 4, !tbaa !27
  %37 = add nsw i32 %36, 1
  store i32 %37, ptr %6, align 4, !tbaa !27
  br label %8, !llvm.loop !62

38:                                               ; preds = %8
  store i32 1, ptr %3, align 4
  store i32 1, ptr %7, align 4
  br label %39

39:                                               ; preds = %38, %33
  call void @llvm.lifetime.end.p0(i64 4, ptr %6) #8
  %40 = load i32, ptr %3, align 4
  ret i32 %40
}

; Function Attrs: nounwind uwtable
define internal i32 @xor_match(ptr noundef %0, ptr noundef %1, i32 noundef %2) #0 {
  %4 = alloca ptr, align 8
  %5 = alloca ptr, align 8
  %6 = alloca i32, align 4
  %7 = alloca ptr, align 8
  %8 = alloca ptr, align 8
  %9 = alloca i32, align 4
  store ptr %0, ptr %4, align 8, !tbaa !13
  store ptr %1, ptr %5, align 8, !tbaa !13
  store i32 %2, ptr %6, align 4, !tbaa !27
  call void @llvm.lifetime.start.p0(i64 8, ptr %7) #8
  %10 = load ptr, ptr %4, align 8, !tbaa !13
  store ptr %10, ptr %7, align 8, !tbaa !41
  call void @llvm.lifetime.start.p0(i64 8, ptr %8) #8
  %11 = load ptr, ptr %5, align 8, !tbaa !13
  store ptr %11, ptr %8, align 8, !tbaa !41
  call void @llvm.lifetime.start.p0(i64 4, ptr %9) #8
  store i32 1, ptr %9, align 4, !tbaa !27
  %12 = load ptr, ptr %7, align 8, !tbaa !41
  %13 = getelementptr inbounds nuw %struct.xorkey_st, ptr %12, i32 0, i32 4
  %14 = load ptr, ptr %13, align 8, !tbaa !59
  %15 = icmp ne ptr %14, null
  br i1 %15, label %16, label %33

16:                                               ; preds = %3
  %17 = load ptr, ptr %8, align 8, !tbaa !41
  %18 = getelementptr inbounds nuw %struct.xorkey_st, ptr %17, i32 0, i32 4
  %19 = load ptr, ptr %18, align 8, !tbaa !59
  %20 = icmp ne ptr %19, null
  br i1 %20, label %21, label %33

21:                                               ; preds = %16
  %22 = load i32, ptr %9, align 4, !tbaa !27
  %23 = load ptr, ptr %7, align 8, !tbaa !41
  %24 = getelementptr inbounds nuw %struct.xorkey_st, ptr %23, i32 0, i32 4
  %25 = load ptr, ptr %24, align 8, !tbaa !59
  %26 = load ptr, ptr %8, align 8, !tbaa !41
  %27 = getelementptr inbounds nuw %struct.xorkey_st, ptr %26, i32 0, i32 4
  %28 = load ptr, ptr %27, align 8, !tbaa !59
  %29 = call i32 @strcmp(ptr noundef %25, ptr noundef %28) #9
  %30 = icmp eq i32 %29, 0
  %31 = zext i1 %30 to i32
  %32 = and i32 %22, %31
  store i32 %32, ptr %9, align 4, !tbaa !27
  br label %33

33:                                               ; preds = %21, %16, %3
  %34 = load i32, ptr %6, align 4, !tbaa !27
  %35 = and i32 %34, 1
  %36 = icmp ne i32 %35, 0
  br i1 %36, label %37, label %88

37:                                               ; preds = %33
  %38 = load ptr, ptr %7, align 8, !tbaa !41
  %39 = getelementptr inbounds nuw %struct.xorkey_st, ptr %38, i32 0, i32 2
  %40 = load i32, ptr %39, align 8, !tbaa !53
  %41 = icmp ne i32 %40, 0
  br i1 %41, label %42, label %70

42:                                               ; preds = %37
  %43 = load ptr, ptr %8, align 8, !tbaa !41
  %44 = getelementptr inbounds nuw %struct.xorkey_st, ptr %43, i32 0, i32 2
  %45 = load i32, ptr %44, align 8, !tbaa !53
  %46 = icmp ne i32 %45, 0
  br i1 %46, label %47, label %59

47:                                               ; preds = %42
  %48 = load i32, ptr %9, align 4, !tbaa !27
  %49 = load ptr, ptr %7, align 8, !tbaa !41
  %50 = getelementptr inbounds nuw %struct.xorkey_st, ptr %49, i32 0, i32 0
  %51 = getelementptr inbounds [32 x i8], ptr %50, i64 0, i64 0
  %52 = load ptr, ptr %8, align 8, !tbaa !41
  %53 = getelementptr inbounds nuw %struct.xorkey_st, ptr %52, i32 0, i32 0
  %54 = getelementptr inbounds [32 x i8], ptr %53, i64 0, i64 0
  %55 = call i32 @CRYPTO_memcmp(ptr noundef %51, ptr noundef %54, i64 noundef 32)
  %56 = icmp eq i32 %55, 0
  %57 = zext i1 %56 to i32
  %58 = and i32 %48, %57
  store i32 %58, ptr %9, align 4, !tbaa !27
  br label %69

59:                                               ; preds = %42
  %60 = load i32, ptr %9, align 4, !tbaa !27
  %61 = load ptr, ptr %7, align 8, !tbaa !41
  %62 = getelementptr inbounds nuw %struct.xorkey_st, ptr %61, i32 0, i32 0
  %63 = getelementptr inbounds [32 x i8], ptr %62, i64 0, i64 0
  %64 = load ptr, ptr %8, align 8, !tbaa !41
  %65 = getelementptr inbounds nuw %struct.xorkey_st, ptr %64, i32 0, i32 1
  %66 = getelementptr inbounds [32 x i8], ptr %65, i64 0, i64 0
  %67 = call i32 @xor_recreate(ptr noundef %63, ptr noundef %66)
  %68 = and i32 %60, %67
  store i32 %68, ptr %9, align 4, !tbaa !27
  br label %69

69:                                               ; preds = %59, %47
  br label %87

70:                                               ; preds = %37
  %71 = load ptr, ptr %8, align 8, !tbaa !41
  %72 = getelementptr inbounds nuw %struct.xorkey_st, ptr %71, i32 0, i32 2
  %73 = load i32, ptr %72, align 8, !tbaa !53
  %74 = icmp ne i32 %73, 0
  br i1 %74, label %75, label %85

75:                                               ; preds = %70
  %76 = load i32, ptr %9, align 4, !tbaa !27
  %77 = load ptr, ptr %8, align 8, !tbaa !41
  %78 = getelementptr inbounds nuw %struct.xorkey_st, ptr %77, i32 0, i32 0
  %79 = getelementptr inbounds [32 x i8], ptr %78, i64 0, i64 0
  %80 = load ptr, ptr %7, align 8, !tbaa !41
  %81 = getelementptr inbounds nuw %struct.xorkey_st, ptr %80, i32 0, i32 1
  %82 = getelementptr inbounds [32 x i8], ptr %81, i64 0, i64 0
  %83 = call i32 @xor_recreate(ptr noundef %79, ptr noundef %82)
  %84 = and i32 %76, %83
  store i32 %84, ptr %9, align 4, !tbaa !27
  br label %86

85:                                               ; preds = %70
  store i32 0, ptr %9, align 4, !tbaa !27
  br label %86

86:                                               ; preds = %85, %75
  br label %87

87:                                               ; preds = %86, %69
  br label %88

88:                                               ; preds = %87, %33
  %89 = load i32, ptr %6, align 4, !tbaa !27
  %90 = and i32 %89, 2
  %91 = icmp ne i32 %90, 0
  br i1 %91, label %92, label %143

92:                                               ; preds = %88
  %93 = load ptr, ptr %7, align 8, !tbaa !41
  %94 = getelementptr inbounds nuw %struct.xorkey_st, ptr %93, i32 0, i32 3
  %95 = load i32, ptr %94, align 4, !tbaa !56
  %96 = icmp ne i32 %95, 0
  br i1 %96, label %97, label %125

97:                                               ; preds = %92
  %98 = load ptr, ptr %8, align 8, !tbaa !41
  %99 = getelementptr inbounds nuw %struct.xorkey_st, ptr %98, i32 0, i32 3
  %100 = load i32, ptr %99, align 4, !tbaa !56
  %101 = icmp ne i32 %100, 0
  br i1 %101, label %102, label %114

102:                                              ; preds = %97
  %103 = load i32, ptr %9, align 4, !tbaa !27
  %104 = load ptr, ptr %7, align 8, !tbaa !41
  %105 = getelementptr inbounds nuw %struct.xorkey_st, ptr %104, i32 0, i32 1
  %106 = getelementptr inbounds [32 x i8], ptr %105, i64 0, i64 0
  %107 = load ptr, ptr %8, align 8, !tbaa !41
  %108 = getelementptr inbounds nuw %struct.xorkey_st, ptr %107, i32 0, i32 1
  %109 = getelementptr inbounds [32 x i8], ptr %108, i64 0, i64 0
  %110 = call i32 @CRYPTO_memcmp(ptr noundef %106, ptr noundef %109, i64 noundef 32)
  %111 = icmp eq i32 %110, 0
  %112 = zext i1 %111 to i32
  %113 = and i32 %103, %112
  store i32 %113, ptr %9, align 4, !tbaa !27
  br label %124

114:                                              ; preds = %97
  %115 = load i32, ptr %9, align 4, !tbaa !27
  %116 = load ptr, ptr %7, align 8, !tbaa !41
  %117 = getelementptr inbounds nuw %struct.xorkey_st, ptr %116, i32 0, i32 1
  %118 = getelementptr inbounds [32 x i8], ptr %117, i64 0, i64 0
  %119 = load ptr, ptr %8, align 8, !tbaa !41
  %120 = getelementptr inbounds nuw %struct.xorkey_st, ptr %119, i32 0, i32 0
  %121 = getelementptr inbounds [32 x i8], ptr %120, i64 0, i64 0
  %122 = call i32 @xor_recreate(ptr noundef %118, ptr noundef %121)
  %123 = and i32 %115, %122
  store i32 %123, ptr %9, align 4, !tbaa !27
  br label %124

124:                                              ; preds = %114, %102
  br label %142

125:                                              ; preds = %92
  %126 = load ptr, ptr %8, align 8, !tbaa !41
  %127 = getelementptr inbounds nuw %struct.xorkey_st, ptr %126, i32 0, i32 3
  %128 = load i32, ptr %127, align 4, !tbaa !56
  %129 = icmp ne i32 %128, 0
  br i1 %129, label %130, label %140

130:                                              ; preds = %125
  %131 = load i32, ptr %9, align 4, !tbaa !27
  %132 = load ptr, ptr %8, align 8, !tbaa !41
  %133 = getelementptr inbounds nuw %struct.xorkey_st, ptr %132, i32 0, i32 1
  %134 = getelementptr inbounds [32 x i8], ptr %133, i64 0, i64 0
  %135 = load ptr, ptr %7, align 8, !tbaa !41
  %136 = getelementptr inbounds nuw %struct.xorkey_st, ptr %135, i32 0, i32 0
  %137 = getelementptr inbounds [32 x i8], ptr %136, i64 0, i64 0
  %138 = call i32 @xor_recreate(ptr noundef %134, ptr noundef %137)
  %139 = and i32 %131, %138
  store i32 %139, ptr %9, align 4, !tbaa !27
  br label %141

140:                                              ; preds = %125
  store i32 0, ptr %9, align 4, !tbaa !27
  br label %141

141:                                              ; preds = %140, %130
  br label %142

142:                                              ; preds = %141, %124
  br label %143

143:                                              ; preds = %142, %88
  %144 = load i32, ptr %9, align 4, !tbaa !27
  call void @llvm.lifetime.end.p0(i64 4, ptr %9) #8
  call void @llvm.lifetime.end.p0(i64 8, ptr %8) #8
  call void @llvm.lifetime.end.p0(i64 8, ptr %7) #8
  ret i32 %144
}