; Function Attrs: nounwind uwtable
define internal range(i32 0, 2) i32 @xor_match(ptr noundef %0, ptr noundef %1, i32 noundef %2) #0 {
  %4 = getelementptr inbounds nuw i8, ptr %0, i64 72
  %5 = load ptr, ptr %4, align 8, !tbaa !46
  %.not = icmp eq ptr %5, null
  br i1 %.not, label %13, label %6

6:                                                ; preds = %3
  %7 = getelementptr inbounds nuw i8, ptr %1, i64 72
  %8 = load ptr, ptr %7, align 8, !tbaa !46
  %.not35 = icmp eq ptr %8, null
  br i1 %.not35, label %13, label %9

9:                                                ; preds = %6
  %10 = tail call i32 @strcmp(ptr noundef nonnull dereferenceable(1) %5, ptr noundef nonnull dereferenceable(1) %8) #17
  %11 = icmp eq i32 %10, 0
  %12 = zext i1 %11 to i32
  br label %13

13:                                               ; preds = %9, %6, %3
  %.0 = phi i32 [ %12, %9 ], [ 1, %6 ], [ 1, %3 ]
  %14 = and i32 %2, 1
  %.not36 = icmp eq i32 %14, 0
  br i1 %.not36, label %50, label %15

15:                                               ; preds = %13
  %16 = getelementptr inbounds nuw i8, ptr %0, i64 64
  %17 = load i32, ptr %16, align 8, !tbaa !41
  %.not37 = icmp eq i32 %17, 0
  %18 = getelementptr inbounds nuw i8, ptr %1, i64 64
  %19 = load i32, ptr %18, align 8, !tbaa !41
  %.not38 = icmp eq i32 %19, 0
  br i1 %.not37, label %37, label %20

20:                                               ; preds = %15
  br i1 %.not38, label %25, label %21

21:                                               ; preds = %20
  %22 = tail call i32 @CRYPTO_memcmp(ptr noundef nonnull %0, ptr noundef nonnull %1, i64 noundef 32) #16
  %23 = icmp eq i32 %22, 0
  %24 = select i1 %23, i32 %.0, i32 0
  br label %50

25:                                               ; preds = %20
  %26 = getelementptr inbounds nuw i8, ptr %1, i64 32
  br label %28

27:                                               ; preds = %28
  %indvars.iv.next.i = add nuw nsw i64 %indvars.iv.i, 1
  %exitcond.not.i = icmp eq i64 %indvars.iv.next.i, 32
  br i1 %exitcond.not.i, label %xor_recreate.exit, label %28, !llvm.loop !51

28:                                               ; preds = %27, %25
  %indvars.iv.i = phi i64 [ 0, %25 ], [ %indvars.iv.next.i, %27 ]
  %29 = getelementptr inbounds nuw i8, ptr %0, i64 %indvars.iv.i
  %30 = load i8, ptr %29, align 1, !tbaa !39
  %31 = getelementptr inbounds nuw i8, ptr %26, i64 %indvars.iv.i
  %32 = load i8, ptr %31, align 1, !tbaa !39
  %33 = getelementptr inbounds nuw [32 x i8], ptr @private_constant, i64 0, i64 %indvars.iv.i
  %34 = load i8, ptr %33, align 1, !tbaa !39
  %35 = xor i8 %34, %32
  %.not.i = icmp eq i8 %30, %35
  br i1 %.not.i, label %27, label %xor_recreate.exit

xor_recreate.exit:                                ; preds = %27, %28
  %.07.i = phi i32 [ 0, %28 ], [ 1, %27 ]
  %36 = and i32 %.07.i, %.0
  br label %50

37:                                               ; preds = %15
  br i1 %.not38, label %50, label %38

38:                                               ; preds = %37
  %39 = getelementptr inbounds nuw i8, ptr %0, i64 32
  br label %41

40:                                               ; preds = %41
  %indvars.iv.next.i47 = add nuw nsw i64 %indvars.iv.i44, 1
  %exitcond.not.i48 = icmp eq i64 %indvars.iv.next.i47, 32
  br i1 %exitcond.not.i48, label %xor_recreate.exit49, label %41, !llvm.loop !51

41:                                               ; preds = %40, %38
  %indvars.iv.i44 = phi i64 [ 0, %38 ], [ %indvars.iv.next.i47, %40 ]
  %42 = getelementptr inbounds nuw i8, ptr %1, i64 %indvars.iv.i44
  %43 = load i8, ptr %42, align 1, !tbaa !39
  %44 = getelementptr inbounds nuw i8, ptr %39, i64 %indvars.iv.i44
  %45 = load i8, ptr %44, align 1, !tbaa !39
  %46 = getelementptr inbounds nuw [32 x i8], ptr @private_constant, i64 0, i64 %indvars.iv.i44
  %47 = load i8, ptr %46, align 1, !tbaa !39
  %48 = xor i8 %47, %45
  %.not.i45 = icmp eq i8 %43, %48
  br i1 %.not.i45, label %40, label %xor_recreate.exit49

xor_recreate.exit49:                              ; preds = %40, %41
  %.07.i46 = phi i32 [ 0, %41 ], [ 1, %40 ]
  %49 = and i32 %.07.i46, %.0
  br label %50

50:                                               ; preds = %37, %xor_recreate.exit, %21, %xor_recreate.exit49, %13
  %.1 = phi i32 [ %24, %21 ], [ %36, %xor_recreate.exit ], [ %49, %xor_recreate.exit49 ], [ %.0, %13 ], [ 0, %37 ]
  %51 = and i32 %2, 2
  %.not40 = icmp eq i32 %51, 0
  br i1 %.not40, label %86, label %52

52:                                               ; preds = %50
  %53 = getelementptr inbounds nuw i8, ptr %0, i64 68
  %54 = load i32, ptr %53, align 4, !tbaa !43
  %.not41 = icmp eq i32 %54, 0
  %55 = getelementptr inbounds nuw i8, ptr %1, i64 68
  %56 = load i32, ptr %55, align 4, !tbaa !43
  %.not42 = icmp eq i32 %56, 0
  br i1 %.not41, label %73, label %57

57:                                               ; preds = %52
  %58 = getelementptr inbounds nuw i8, ptr %0, i64 32
  br i1 %.not42, label %.preheader, label %59

59:                                               ; preds = %57
  %60 = getelementptr inbounds nuw i8, ptr %1, i64 32
  %61 = tail call i32 @CRYPTO_memcmp(ptr noundef nonnull %58, ptr noundef nonnull %60, i64 noundef 32) #16
  %62 = icmp eq i32 %61, 0
  %63 = select i1 %62, i32 %.1, i32 0
  br label %86

64:                                               ; preds = %.preheader
  %indvars.iv.next.i53 = add nuw nsw i64 %indvars.iv.i50, 1
  %exitcond.not.i54 = icmp eq i64 %indvars.iv.next.i53, 32
  br i1 %exitcond.not.i54, label %xor_recreate.exit55, label %.preheader, !llvm.loop !51

.preheader:                                       ; preds = %57, %64
  %indvars.iv.i50 = phi i64 [ %indvars.iv.next.i53, %64 ], [ 0, %57 ]
  %65 = getelementptr inbounds nuw i8, ptr %58, i64 %indvars.iv.i50
  %66 = load i8, ptr %65, align 1, !tbaa !39
  %67 = getelementptr inbounds nuw i8, ptr %1, i64 %indvars.iv.i50
  %68 = load i8, ptr %67, align 1, !tbaa !39
  %69 = getelementptr inbounds nuw [32 x i8], ptr @private_constant, i64 0, i64 %indvars.iv.i50
  %70 = load i8, ptr %69, align 1, !tbaa !39
  %71 = xor i8 %70, %68
  %.not.i51 = icmp eq i8 %66, %71
  br i1 %.not.i51, label %64, label %xor_recreate.exit55

xor_recreate.exit55:                              ; preds = %64, %.preheader
  %.07.i52 = phi i32 [ 0, %.preheader ], [ 1, %64 ]
  %72 = and i32 %.07.i52, %.1
  br label %86

73:                                               ; preds = %52
  br i1 %.not42, label %86, label %74

74:                                               ; preds = %73
  %75 = getelementptr inbounds nuw i8, ptr %1, i64 32
  br label %77

76:                                               ; preds = %77
  %indvars.iv.next.i59 = add nuw nsw i64 %indvars.iv.i56, 1
  %exitcond.not.i60 = icmp eq i64 %indvars.iv.next.i59, 32
  br i1 %exitcond.not.i60, label %xor_recreate.exit61, label %77, !llvm.loop !51

77:                                               ; preds = %76, %74
  %indvars.iv.i56 = phi i64 [ 0, %74 ], [ %indvars.iv.next.i59, %76 ]
  %78 = getelementptr inbounds nuw i8, ptr %75, i64 %indvars.iv.i56
  %79 = load i8, ptr %78, align 1, !tbaa !39
  %80 = getelementptr inbounds nuw i8, ptr %0, i64 %indvars.iv.i56
  %81 = load i8, ptr %80, align 1, !tbaa !39
  %82 = getelementptr inbounds nuw [32 x i8], ptr @private_constant, i64 0, i64 %indvars.iv.i56
  %83 = load i8, ptr %82, align 1, !tbaa !39
  %84 = xor i8 %83, %81
  %.not.i57 = icmp eq i8 %79, %84
  br i1 %.not.i57, label %76, label %xor_recreate.exit61

xor_recreate.exit61:                              ; preds = %76, %77
  %.07.i58 = phi i32 [ 0, %77 ], [ 1, %76 ]
  %85 = and i32 %.07.i58, %.1
  br label %86

86:                                               ; preds = %73, %xor_recreate.exit55, %59, %xor_recreate.exit61, %50
  %.2 = phi i32 [ %63, %59 ], [ %72, %xor_recreate.exit55 ], [ %85, %xor_recreate.exit61 ], [ %.1, %50 ], [ 0, %73 ]
  ret i32 %.2
}